target datalayout = "e-m:e-p270:32:32-p271:32:32-p272:64:64-i64:64-i128:128-f80:128-n8:16:32:64-S128"
target triple = "x86_64-pc-linux-gnu"

%struct.Vec_Int_t_ = type { i32, i32, ptr }
%struct.Prs_Man_t_ = type { ptr, ptr, ptr, ptr, ptr, ptr, ptr, ptr, ptr, %struct.Vec_Str_t_, %struct.Vec_Int_t_, %struct.Vec_Int_t_, %struct.Vec_Int_t_, %struct.Vec_Int_t_, %struct.Vec_Int_t_, %struct.Vec_Int_t_, %struct.Vec_Int_t_, i32, i32, i32, i32, [1000 x i8] }
%struct.Vec_Str_t_ = type { i32, i32, ptr }

@.str.39 = private unnamed_addr constant [6 x i8] c"input\00", align 1
@.str.72 = private unnamed_addr constant [3 x i8] c"%s\00", align 1
@.str.162 = private unnamed_addr constant [7 x i8] c"_func_\00", align 1
@.str.163 = private unnamed_addr constant [30 x i8] c"Cannot find \22_func_\22 keyword.\00", align 1
@.str.164 = private unnamed_addr constant [18 x i8] c"Error number 30a.\00", align 1
@.str.165 = private unnamed_addr constant [29 x i8] c"Cannot find \22input\22 keyword.\00", align 1
@.str.166 = private unnamed_addr constant [18 x i8] c"Error number 30b.\00", align 1
@.str.167 = private unnamed_addr constant [18 x i8] c"Error number 30c.\00", align 1
@.str.168 = private unnamed_addr constant [12 x i8] c"endfunction\00", align 1
@.str.169 = private unnamed_addr constant [35 x i8] c"Cannot find \22endfunction\22 keyword.\00", align 1

; Function Attrs: nounwind uwtable
define internal i32 @Prs_ManIsChar(ptr noundef %0, i8 noundef signext %1) #0 {
  %3 = alloca ptr, align 8
  %4 = alloca i8, align 1
  store ptr %0, ptr %3, align 8
  store i8 %1, ptr %4, align 1
  %5 = load ptr, ptr %3, align 8
  %6 = getelementptr inbounds %struct.Prs_Man_t_, ptr %5, i32 0, i32 3
  %7 = load ptr, ptr %6, align 8
  %8 = getelementptr inbounds i8, ptr %7, i64 0
  %9 = load i8, ptr %8, align 1
  %10 = sext i8 %9 to i32
  %11 = load i8, ptr %4, align 1
  %12 = sext i8 %11 to i32
  %13 = icmp eq i32 %10, %12
  %14 = zext i1 %13 to i32
  ret i32 %14
}

; Function Attrs: nounwind uwtable
define internal i32 @Prs_ManErrorSet(ptr noundef %0, ptr noundef %1, i32 noundef %2) #0 {
  %4 = alloca ptr, align 8
  %5 = alloca ptr, align 8
  %6 = alloca i32, align 4
  store ptr %0, ptr %4, align 8
  store ptr %1, ptr %5, align 8
  store i32 %2, ptr %6, align 4
  %7 = load ptr, ptr %4, align 8
  %8 = getelementptr inbounds %struct.Prs_Man_t_, ptr %7, i32 0, i32 21
  %9 = getelementptr inbounds [1000 x i8], ptr %8, i64 0, i64 0
  %10 = load ptr, ptr %5, align 8
  %11 = call i32 (ptr, ptr, ...) @sprintf(ptr noundef %9, ptr noundef @.str.72, ptr noundef %10) #12
  %12 = load i32, ptr %6, align 4
  ret i32 %12
}

; Function Attrs: nounwind uwtable
define internal i32 @Prs_ManUtilSkipUntilWord(ptr noundef %0, ptr noundef %1) #0 {
  %3 = alloca i32, align 4
  %4 = alloca ptr, align 8
  %5 = alloca ptr, align 8
  %6 = alloca ptr, align 8
  store ptr %0, ptr %4, align 8
  store ptr %1, ptr %5, align 8
  %7 = load ptr, ptr %4, align 8
  %8 = getelementptr inbounds %struct.Prs_Man_t_, ptr %7, i32 0, i32 3
  %9 = load ptr, ptr %8, align 8
  %10 = load ptr, ptr %5, align 8
  %11 = call ptr @strstr(ptr noundef %9, ptr noundef %10) #11
  store ptr %11, ptr %6, align 8
  %12 = load ptr, ptr %6, align 8
  %13 = icmp eq ptr %12, null
  br i1 %13, label %14, label %15

14:                                               ; preds = %2
  store i32 1, ptr %3, align 4
  br label %22

15:                                               ; preds = %2
  %16 = load ptr, ptr %6, align 8
  %17 = load ptr, ptr %5, align 8
  %18 = call i64 @strlen(ptr noundef %17) #11
  %19 = getelementptr inbounds i8, ptr %16, i64 %18
  %20 = load ptr, ptr %4, align 8
  %21 = getelementptr inbounds %struct.Prs_Man_t_, ptr %20, i32 0, i32 3
  store ptr %19, ptr %21, align 8
  store i32 0, ptr %3, align 4
  br label %22

22:                                               ; preds = %15, %14
  %23 = load i32, ptr %3, align 4
  ret i32 %23
}

; Function Attrs: nounwind uwtable
define internal i32 @Prs_ManReadFunction(ptr noundef %0) #0 {
  %2 = alloca i32, align 4
  %3 = alloca ptr, align 8
  store ptr %0, ptr %3, align 8
  %4 = load ptr, ptr %3, align 8
  %5 = getelementptr inbounds %struct.Prs_Man_t_, ptr %4, i32 0, i32 20
  store i32 0, ptr %5, align 4
  %6 = load ptr, ptr %3, align 8
  %7 = getelementptr inbounds %struct.Prs_Man_t_, ptr %6, i32 0, i32 19
  store i32 0, ptr %7, align 8
  %8 = load ptr, ptr %3, align 8
  %9 = call i32 @Prs_ManUtilSkipUntilWord(ptr noundef %8, ptr noundef @.str.162)
  %10 = icmp ne i32 %9, 0
  br i1 %10, label %11, label %14

11:                                               ; preds = %1
  %12 = load ptr, ptr %3, align 8
  %13 = call i32 @Prs_ManErrorSet(ptr noundef %12, ptr noundef @.str.163, i32 noundef 0)
  store i32 %13, ptr %2, align 4
  br label %83

14:                                               ; preds = %1
  %15 = load ptr, ptr %3, align 8
  %16 = getelementptr inbounds %struct.Prs_Man_t_, ptr %15, i32 0, i32 3
  %17 = load ptr, ptr %16, align 8
  %18 = getelementptr inbounds i8, ptr %17, i64 -6
  store ptr %18, ptr %16, align 8
  %19 = load ptr, ptr %3, align 8
  %20 = call i32 @Prs_ManReadName(ptr noundef %19)
  %21 = load ptr, ptr %3, align 8
  %22 = getelementptr inbounds %struct.Prs_Man_t_, ptr %21, i32 0, i32 19
  store i32 %20, ptr %22, align 8
  %23 = load ptr, ptr %3, align 8
  %24 = getelementptr inbounds %struct.Prs_Man_t_, ptr %23, i32 0, i32 19
  %25 = load i32, ptr %24, align 8
  %26 = icmp eq i32 %25, 0
  br i1 %26, label %27, label %30

27:                                               ; preds = %14
  %28 = load ptr, ptr %3, align 8
  %29 = call i32 @Prs_ManErrorSet(ptr noundef %28, ptr noundef @.str.164, i32 noundef 0)
  store i32 %29, ptr %2, align 4
  br label %83

30:                                               ; preds = %14
  %31 = load ptr, ptr %3, align 8
  %32 = call i32 @Prs_ManUtilSkipUntilWord(ptr noundef %31, ptr noundef @.str.39)
  %33 = icmp ne i32 %32, 0
  br i1 %33, label %34, label %37

34:                                               ; preds = %30
  %35 = load ptr, ptr %3, align 8
  %36 = call i32 @Prs_ManErrorSet(ptr noundef %35, ptr noundef @.str.165, i32 noundef 0)
  store i32 %36, ptr %2, align 4
  br label %83

37:                                               ; preds = %30
  %38 = load ptr, ptr %3, align 8
  %39 = call i32 @Prs_ManUtilSkipSpaces(ptr noundef %38)
  %40 = icmp ne i32 %39, 0
  br i1 %40, label %41, label %44

41:                                               ; preds = %37
  %42 = load ptr, ptr %3, align 8
  %43 = call i32 @Prs_ManErrorSet(ptr noundef %42, ptr noundef @.str.166, i32 noundef 0)
  store i32 %43, ptr %2, align 4
  br label %83

44:                                               ; preds = %37
  %45 = load ptr, ptr %3, align 8
  %46 = call i32 @Prs_ManIsChar(ptr noundef %45, i8 noundef signext 91)
  %47 = icmp ne i32 %46, 0
  br i1 %47, label %48, label %53

48:                                               ; preds = %44
  %49 = load ptr, ptr %3, align 8
  %50 = call i32 @Prs_ManReadRange(ptr noundef %49)
  %51 = load ptr, ptr %3, align 8
  %52 = getelementptr inbounds %struct.Prs_Man_t_, ptr %51, i32 0, i32 20
  store i32 %50, ptr %52, align 4
  br label %75

53:                                               ; preds = %44
  %54 = load ptr, ptr %3, align 8
  %55 = call i32 @Prs_ManReadName(ptr noundef %54)
  %56 = icmp eq i32 %55, 15
  br i1 %56, label %57, label %74

57:                                               ; preds = %53
  %58 = load ptr, ptr %3, align 8
  %59 = call i32 @Prs_ManUtilSkipSpaces(ptr noundef %58)
  %60 = icmp ne i32 %59, 0
  br i1 %60, label %61, label %64

61:                                               ; preds = %57
  %62 = load ptr, ptr %3, align 8
  %63 = call i32 @Prs_ManErrorSet(ptr noundef %62, ptr noundef @.str.167, i32 noundef 0)
  store i32 %63, ptr %2, align 4
  br label %83

64:                                               ; preds = %57
  %65 = load ptr, ptr %3, align 8
  %66 = call i32 @Prs_ManIsChar(ptr noundef %65, i8 noundef signext 91)
  %67 = icmp ne i32 %66, 0
  br i1 %67, label %68, label %73

68:                                               ; preds = %64
  %69 = load ptr, ptr %3, align 8
  %70 = call i32 @Prs_ManReadRange(ptr noundef %69)
  %71 = load ptr, ptr %3, align 8
  %72 = getelementptr inbounds %struct.Prs_Man_t_, ptr %71, i32 0, i32 20
  store i32 %70, ptr %72, align 4
  br label %73

73:                                               ; preds = %68, %64
  br label %74

74:                                               ; preds = %73, %53
  br label %75

75:                                               ; preds = %74, %48
  %76 = load ptr, ptr %3, align 8
  %77 = call i32 @Prs_ManUtilSkipUntilWord(ptr noundef %76, ptr noundef @.str.168)
  %78 = icmp ne i32 %77, 0
  br i1 %78, label %79, label %82

79:                                               ; preds = %75
  %80 = load ptr, ptr %3, align 8
  %81 = call i32 @Prs_ManErrorSet(ptr noundef %80, ptr noundef @.str.169, i32 noundef 0)
  store i32 %81, ptr %2, align 4
  br label %83

82:                                               ; preds = %75
  store i32 1, ptr %2, align 4
  br label %83

83:                                               ; preds = %82, %79, %61, %41, %34, %27, %11
  %84 = load i32, ptr %2, align 4
  ret i32 %84
}