; Function Attrs: nounwind uwtable
define internal fastcc range(i32 0, 2) i32 @Prs_ManReadFunction(ptr noundef nonnull captures(none) initializes((208, 216)) %0) unnamed_addr #0 {
  %2 = getelementptr inbounds nuw i8, ptr %0, i64 212
  store i32 0, ptr %2, align 4
  %3 = getelementptr inbounds nuw i8, ptr %0, i64 208
  store i32 0, ptr %3, align 8
  %4 = getelementptr inbounds nuw i8, ptr %0, i64 24
  %5 = load ptr, ptr %4, align 8
  %6 = tail call ptr @strstr(ptr noundef nonnull dereferenceable(1) %5, ptr noundef nonnull dereferenceable(1) @.str.162) #31
  %7 = icmp eq ptr %6, null
  br i1 %7, label %Prs_ManUtilSkipUntilWord.exit, label %9

Prs_ManUtilSkipUntilWord.exit:                    ; preds = %1
  %8 = getelementptr inbounds nuw i8, ptr %0, i64 216
  tail call void @llvm.memcpy.p0.p0.i64(ptr noundef nonnull align 1 dereferenceable(30) %8, ptr noundef nonnull align 1 dereferenceable(30) @.str.163, i64 30, i1 false)
  br label %77

9:                                                ; preds = %1
  store ptr %6, ptr %4, align 8
  %.val17.val.i = load i8, ptr %6, align 1
  %.not.i = icmp eq i8 %.val17.val.i, 92
  br i1 %.not.i, label %10, label %14

10:                                               ; preds = %9
  %11 = getelementptr inbounds nuw i8, ptr %6, i64 1
  br label %12

12:                                               ; preds = %12, %10
  %storemerge15.i = phi ptr [ %11, %10 ], [ %13, %12 ]
  store ptr %storemerge15.i, ptr %4, align 8
  %.val.val.i = load i8, ptr %storemerge15.i, align 1
  %.not18.i = icmp eq i8 %.val.val.i, 32
  %13 = getelementptr inbounds nuw i8, ptr %storemerge15.i, i64 1
  br i1 %.not18.i, label %Prs_ManReadName.exit, label %12, !llvm.loop !15

14:                                               ; preds = %9
  %15 = and i8 %.val17.val.i, -33
  %16 = add i8 %15, -91
  %narrow.i.i.i = icmp ult i8 %16, -26
  %17 = icmp ne i8 %.val17.val.i, 95
  %.not20.i = and i1 %17, %narrow.i.i.i
  br i1 %.not20.i, label %Prs_ManReadName.exit.thread, label %.preheader.i

Prs_ManReadName.exit.thread:                      ; preds = %14
  store i32 0, ptr %3, align 8
  br label %30

.preheader.i:                                     ; preds = %14, %.preheader.i
  %.pn28.i = phi ptr [ %storemerge.i, %.preheader.i ], [ %6, %14 ]
  %storemerge.i = getelementptr inbounds nuw i8, ptr %.pn28.i, i64 1
  store ptr %storemerge.i, ptr %4, align 8
  %18 = load i8, ptr %storemerge.i, align 1
  %19 = and i8 %18, -33
  %20 = add i8 %19, -91
  %narrow.i.i.i.i = icmp ult i8 %20, -26
  %21 = icmp ne i8 %18, 95
  %.not5.not7.i.not26.i = and i1 %21, %narrow.i.i.i.i
  %22 = add i8 %18, -58
  %23 = icmp ult i8 %22, -10
  %24 = icmp ne i8 %18, 36
  %.not24.i = and i1 %24, %.not5.not7.i.not26.i
  %narrow.i.not.i = and i1 %23, %.not24.i
  br i1 %narrow.i.not.i, label %Prs_ManReadName.exit, label %.preheader.i, !llvm.loop !16

Prs_ManReadName.exit:                             ; preds = %.preheader.i, %12
  %25 = phi ptr [ %storemerge15.i, %12 ], [ %storemerge.i, %.preheader.i ]
  %.0.i31 = phi ptr [ %11, %12 ], [ %6, %.preheader.i ]
  %26 = getelementptr inbounds nuw i8, ptr %0, i64 32
  %27 = load ptr, ptr %26, align 8
  %28 = tail call i32 @Abc_NamStrFindOrAddLim(ptr noundef %27, ptr noundef nonnull %.0.i31, ptr noundef nonnull %25, ptr noundef null) #28
  store i32 %28, ptr %3, align 8
  %29 = icmp eq i32 %28, 0
  br i1 %29, label %30, label %32

30:                                               ; preds = %Prs_ManReadName.exit.thread, %Prs_ManReadName.exit
  %31 = getelementptr inbounds nuw i8, ptr %0, i64 216
  tail call void @llvm.memcpy.p0.p0.i64(ptr noundef nonnull align 1 dereferenceable(18) %31, ptr noundef nonnull align 1 dereferenceable(18) @.str.164, i64 18, i1 false)
  br label %77

32:                                               ; preds = %Prs_ManReadName.exit
  %33 = load ptr, ptr %4, align 8
  %34 = tail call ptr @strstr(ptr noundef nonnull dereferenceable(1) %33, ptr noundef nonnull dereferenceable(1) @.str.39) #31
  %35 = icmp eq ptr %34, null
  br i1 %35, label %Prs_ManUtilSkipUntilWord.exit34, label %37

Prs_ManUtilSkipUntilWord.exit34:                  ; preds = %32
  %36 = getelementptr inbounds nuw i8, ptr %0, i64 216
  tail call void @llvm.memcpy.p0.p0.i64(ptr noundef nonnull align 1 dereferenceable(29) %36, ptr noundef nonnull align 1 dereferenceable(29) @.str.165, i64 29, i1 false)
  br label %77

37:                                               ; preds = %32
  %38 = getelementptr inbounds nuw i8, ptr %34, i64 5
  store ptr %38, ptr %4, align 8
  %39 = getelementptr inbounds nuw i8, ptr %0, i64 16
  %40 = load ptr, ptr %39, align 8
  %41 = icmp ult ptr %38, %40
  br i1 %41, label %.preheader.i37, label %.loopexit55

.preheader.i37:                                   ; preds = %37, %.preheader.i37.backedge
  %42 = phi ptr [ %.be, %.preheader.i37.backedge ], [ %38, %37 ]
  %43 = load i8, ptr %42, align 1
  switch i8 %43, label %.loopexit [
    i8 32, label %Prs_CharIsSpace.exit.thread.i
    i8 13, label %Prs_CharIsSpace.exit.thread.i
    i8 9, label %Prs_CharIsSpace.exit.thread.i
    i8 10, label %Prs_CharIsSpace.exit.thread.i
    i8 0, label %.loopexit55
    i8 47, label %45
  ]

Prs_CharIsSpace.exit.thread.i:                    ; preds = %.preheader.i37, %.preheader.i37, %.preheader.i37, %.preheader.i37
  %44 = getelementptr inbounds nuw i8, ptr %42, i64 1
  store ptr %44, ptr %4, align 8
  br label %.preheader.i37.backedge

.preheader.i37.backedge:                          ; preds = %Prs_CharIsSpace.exit.thread.i, %Prs_ManUtilSkipComments.exit.i
  %.be = phi ptr [ %44, %Prs_CharIsSpace.exit.thread.i ], [ %.sink.i.i, %Prs_ManUtilSkipComments.exit.i ]
  br label %.preheader.i37, !llvm.loop !6

45:                                               ; preds = %.preheader.i37
  %46 = getelementptr i8, ptr %42, i64 1
  %.val25.val.i.i = load i8, ptr %46, align 1
  switch i8 %.val25.val.i.i, label %.loopexit.thread [
    i8 47, label %47
    i8 42, label %52
  ]

47:                                               ; preds = %45
  %48 = getelementptr inbounds nuw i8, ptr %42, i64 2
  store ptr %48, ptr %4, align 8
  %49 = icmp ult ptr %48, %40
  br i1 %49, label %.lr.ph38.i.i, label %.loopexitthread-pre-split

.lr.ph38.i.i:                                     ; preds = %47, %51
  %storemerge2137.i.i = phi ptr [ %50, %51 ], [ %48, %47 ]
  %.val23.val.i.i = load i8, ptr %storemerge2137.i.i, align 1
  %.not29.i.i = icmp eq i8 %.val23.val.i.i, 10
  %50 = getelementptr inbounds nuw i8, ptr %storemerge2137.i.i, i64 1
  br i1 %.not29.i.i, label %Prs_ManUtilSkipComments.exit.i, label %51

51:                                               ; preds = %.lr.ph38.i.i
  store ptr %50, ptr %4, align 8
  %exitcond44.not.i.i = icmp eq ptr %50, %40
  br i1 %exitcond44.not.i.i, label %.loopexitthread-pre-split, label %.lr.ph38.i.i, !llvm.loop !7

52:                                               ; preds = %45
  %53 = getelementptr inbounds nuw i8, ptr %42, i64 2
  store ptr %53, ptr %4, align 8
  %54 = icmp ult ptr %53, %40
  br i1 %54, label %.lr.ph.i.i, label %.loopexitthread-pre-split

.lr.ph.i.i:                                       ; preds = %52, %59
  %storemerge36.i.i = phi ptr [ %60, %59 ], [ %53, %52 ]
  %.val.val.i.i = load i8, ptr %storemerge36.i.i, align 1
  %.not31.i.i = icmp eq i8 %.val.val.i.i, 42
  br i1 %.not31.i.i, label %55, label %59

55:                                               ; preds = %.lr.ph.i.i
  %56 = getelementptr i8, ptr %storemerge36.i.i, i64 1
  %.val27.val.i.i = load i8, ptr %56, align 1
  %.not32.i.i = icmp eq i8 %.val27.val.i.i, 47
  br i1 %.not32.i.i, label %57, label %59

57:                                               ; preds = %55
  %58 = getelementptr inbounds nuw i8, ptr %storemerge36.i.i, i64 2
  br label %Prs_ManUtilSkipComments.exit.i

59:                                               ; preds = %55, %.lr.ph.i.i
  %60 = getelementptr inbounds nuw i8, ptr %storemerge36.i.i, i64 1
  store ptr %60, ptr %4, align 8
  %exitcond.not.i.i = icmp eq ptr %60, %40
  br i1 %exitcond.not.i.i, label %.loopexitthread-pre-split, label %.lr.ph.i.i, !llvm.loop !8

Prs_ManUtilSkipComments.exit.i:                   ; preds = %.lr.ph38.i.i, %57
  %.sink.i.i = phi ptr [ %58, %57 ], [ %50, %.lr.ph38.i.i ]
  store ptr %.sink.i.i, ptr %4, align 8
  %61 = icmp ult ptr %.sink.i.i, %40
  br i1 %61, label %.preheader.i37.backedge, label %.loopexit55

.loopexit55:                                      ; preds = %Prs_ManUtilSkipComments.exit.i, %.preheader.i37, %37
  %62 = getelementptr inbounds nuw i8, ptr %0, i64 216
  tail call void @llvm.memcpy.p0.p0.i64(ptr noundef nonnull align 1 dereferenceable(34) %62, ptr noundef nonnull align 1 dereferenceable(34) @.str.62, i64 34, i1 false)
  tail call void @llvm.memcpy.p0.p0.i64(ptr noundef nonnull align 1 dereferenceable(18) %62, ptr noundef nonnull align 1 dereferenceable(18) @.str.166, i64 18, i1 false)
  br label %77

.loopexitthread-pre-split:                        ; preds = %52, %47, %59, %51
  %.val30.ph = phi ptr [ %50, %51 ], [ %60, %59 ], [ %53, %52 ], [ %48, %47 ]
  %.val30.val.pr = load i8, ptr %.val30.ph, align 1
  br label %.loopexit

.loopexit:                                        ; preds = %.preheader.i37, %.loopexitthread-pre-split
  %.val30.val = phi i8 [ %.val30.val.pr, %.loopexitthread-pre-split ], [ %43, %.preheader.i37 ]
  %.not = icmp eq i8 %.val30.val, 91
  br i1 %.not, label %.sink.split, label %.loopexit.thread

.loopexit.thread:                                 ; preds = %45, %.loopexit
  %63 = tail call fastcc i32 @Prs_ManReadName(ptr noundef nonnull %0)
  %64 = icmp eq i32 %63, 15
  br i1 %64, label %65, label %71

65:                                               ; preds = %.loopexit.thread
  %66 = tail call fastcc i32 @Prs_ManUtilSkipSpaces(ptr noundef nonnull %0)
  %.not27 = icmp eq i32 %66, 0
  br i1 %.not27, label %69, label %67

67:                                               ; preds = %65
  %68 = getelementptr inbounds nuw i8, ptr %0, i64 216
  tail call void @llvm.memcpy.p0.p0.i64(ptr noundef nonnull align 1 dereferenceable(18) %68, ptr noundef nonnull align 1 dereferenceable(18) @.str.167, i64 18, i1 false)
  br label %77

69:                                               ; preds = %65
  %.val = load ptr, ptr %4, align 8
  %.val.val = load i8, ptr %.val, align 1
  %.not52 = icmp eq i8 %.val.val, 91
  br i1 %.not52, label %.sink.split, label %71

.sink.split:                                      ; preds = %69, %.loopexit
  %70 = tail call fastcc i32 @Prs_ManReadRange(ptr noundef nonnull %0)
  store i32 %70, ptr %2, align 4
  br label %71

71:                                               ; preds = %.sink.split, %.loopexit.thread, %69
  %72 = load ptr, ptr %4, align 8
  %73 = tail call ptr @strstr(ptr noundef nonnull dereferenceable(1) %72, ptr noundef nonnull dereferenceable(1) @.str.168) #31
  %74 = icmp eq ptr %73, null
  br i1 %74, label %Prs_ManUtilSkipUntilWord.exit41, label %Prs_ManUtilSkipUntilWord.exit41.thread

Prs_ManUtilSkipUntilWord.exit41.thread:           ; preds = %71
  %75 = getelementptr inbounds nuw i8, ptr %73, i64 11
  store ptr %75, ptr %4, align 8
  br label %77

Prs_ManUtilSkipUntilWord.exit41:                  ; preds = %71
  %76 = getelementptr inbounds nuw i8, ptr %0, i64 216
  tail call void @llvm.memcpy.p0.p0.i64(ptr noundef nonnull align 1 dereferenceable(35) %76, ptr noundef nonnull align 1 dereferenceable(35) @.str.169, i64 35, i1 false)
  br label %77

77:                                               ; preds = %Prs_ManUtilSkipUntilWord.exit41.thread, %Prs_ManUtilSkipUntilWord.exit41, %67, %.loopexit55, %Prs_ManUtilSkipUntilWord.exit34, %30, %Prs_ManUtilSkipUntilWord.exit
  %.0 = phi i32 [ 0, %Prs_ManUtilSkipUntilWord.exit ], [ 0, %30 ], [ 0, %Prs_ManUtilSkipUntilWord.exit34 ], [ 0, %.loopexit55 ], [ 0, %Prs_ManUtilSkipUntilWord.exit41 ], [ 0, %67 ], [ 1, %Prs_ManUtilSkipUntilWord.exit41.thread ]
  ret i32 %.0
}